target datalayout = "e-m:e-p270:32:32-p271:32:32-p272:64:64-i64:64-i128:128-f80:128-n8:16:32:64-S128"
target triple = "x86_64-unknown-linux-gnu"

%"class.std::basic_string_view" = type { i64, ptr }
%"class.grpc_core::PromiseBasedCall::Completion" = type { i8 }
%"class.grpc_core::RefCountedPtr.297" = type { ptr }
%class.anon.313 = type { ptr }
%class.anon.314 = type <{ ptr, ptr, %"class.grpc_core::PromiseBasedCall::Completion", [7 x i8] }>
%"class.grpc_core::Party::Participant" = type { ptr, ptr, %"class.std::basic_string_view" }
%"class.std::unique_ptr.534" = type { %"struct.std::__uniq_ptr_data.535" }
%"struct.std::__uniq_ptr_data.535" = type { %"class.std::__uniq_ptr_impl.536" }
%"class.std::__uniq_ptr_impl.536" = type { %"class.std::tuple.537" }
%"class.std::tuple.537" = type { %"struct.std::_Tuple_impl.538" }
%"struct.std::_Tuple_impl.538" = type { %"struct.std::_Tuple_impl.539", %"struct.std::_Head_base.541" }
%"struct.std::_Tuple_impl.539" = type { %"struct.std::_Head_base.540" }
%"struct.std::_Head_base.540" = type { %"class.grpc_core::Arena::ArrayPooledDeleter" }
%"class.grpc_core::Arena::ArrayPooledDeleter" = type { i8 }
%"struct.std::_Head_base.541" = type { ptr }
%"class.grpc_core::Party::ParticipantImpl.571" = type <{ %"class.grpc_core::Party::Participant", %union.anon.572, %class.anon.base.315, i8, [6 x i8] }>
%union.anon.572 = type { %"class.grpc_core::promise_detail::OncePromiseFactory.573", [64 x i8] }
%"class.grpc_core::promise_detail::OncePromiseFactory.573" = type { %class.anon.313 }
%class.anon.base.315 = type <{ ptr, ptr, %"class.grpc_core::PromiseBasedCall::Completion" }>
%"class.grpc_core::promise_detail::PromiseLike.574" = type { %"class.grpc_core::promise_detail::Race.575" }
%"class.grpc_core::promise_detail::Race.575" = type { %"class.grpc_core::promise_detail::Seq.576", %"class.grpc_core::promise_detail::Race.605" }
%"class.grpc_core::promise_detail::Seq.576" = type { %"struct.grpc_core::promise_detail::SeqState.577" }
%"struct.grpc_core::promise_detail::SeqState.577" = type <{ %union.anon.578, i8, [7 x i8] }>
%union.anon.578 = type { %"class.grpc_core::promise_detail::PromiseLike.583" }
%"class.grpc_core::promise_detail::PromiseLike.583" = type { %"class.grpc_core::promise_detail::If.584" }
%"class.grpc_core::promise_detail::If.584" = type { i8, %union.anon.585 }
%union.anon.585 = type { %"class.grpc_core::promise_detail::PromiseLike.586" }
%"class.grpc_core::promise_detail::PromiseLike.586" = type { %"class.grpc_core::promise_detail::Map.587" }
%"class.grpc_core::promise_detail::Map.587" = type { %"class.grpc_core::promise_detail::PromiseLike.588", %class.anon.601 }
%"class.grpc_core::promise_detail::PromiseLike.588" = type { %"class.grpc_core::InterceptorList<std::unique_ptr<grpc_metadata_batch, grpc_core::Arena::PooledDeleter>>::RunPromise.base", [7 x i8] }
%"class.grpc_core::InterceptorList<std::unique_ptr<grpc_metadata_batch, grpc_core::Arena::PooledDeleter>>::RunPromise.base" = type <{ %union.anon.589, i8 }>
%union.anon.589 = type { %"struct.grpc_core::InterceptorList<std::unique_ptr<grpc_metadata_batch, grpc_core::Arena::PooledDeleter>>::RunPromise::AsyncResolution" }
%"struct.grpc_core::InterceptorList<std::unique_ptr<grpc_metadata_batch, grpc_core::Arena::PooledDeleter>>::RunPromise::AsyncResolution" = type { ptr, %"class.std::unique_ptr.534" }
%class.anon.601 = type { %"class.grpc_core::RefCountedPtr.297" }
%"class.grpc_core::promise_detail::Race.605" = type { %"class.grpc_core::promise_detail::Map.606" }
%"class.grpc_core::promise_detail::Map.606" = type <{ %"class.grpc_core::promise_detail::PromiseLike.607", %class.anon.609, [7 x i8] }>
%"class.grpc_core::promise_detail::PromiseLike.607" = type { %class.anon.608 }
%class.anon.608 = type { ptr }
%class.anon.609 = type { i8 }

@.str.7 = private unnamed_addr constant [116 x i8] c"generated/home/dtcxzyw/WorkSpace/Projects/compilers/llvm-opt-benchmark/bench/grpc/grpc/src/core/lib/surface/call.cc\00", align 1
@.str.116 = private unnamed_addr constant [21 x i8] c"index_ == kNullIndex\00", align 1
@.str.131 = private unnamed_addr constant [118 x i8] c"generated/home/dtcxzyw/WorkSpace/Projects/compilers/llvm-opt-benchmark/bench/grpc/grpc/src/core/lib/promise/context.h\00", align 1
@.str.132 = private unnamed_addr constant [13 x i8] c"p != nullptr\00", align 1
@_ZN9grpc_core14promise_detail7ContextINS_5ArenaEE8current_E = linkonce_odr thread_local global ptr null, comdat, align 8

; Function Attrs: mustprogress nounwind uwtable
define linkonce_odr void @_ZN9grpc_core14promise_detail3SeqINS_11pipe_detail4NextISt10unique_ptrI19grpc_metadata_batchNS_5Arena13PooledDeleterEEEEJZNS_12PipeReceiverIS8_E4NextEvEUlSt8optionalIS8_EE_EED2Ev(ptr noundef nonnull align 8 dereferenceable(56) %this) unnamed_addr #5 comdat align 2 {
entry:
  %this.addr = alloca ptr, align 8
  store ptr %this, ptr %this.addr, align 8
  %this1 = load ptr, ptr %this.addr, align 8
  %state_ = getelementptr inbounds %"class.grpc_core::promise_detail::Seq.576", ptr %this1, i32 0, i32 0
  call void @_ZN9grpc_core14promise_detail8SeqStateINS0_9SeqTraitsENS_11pipe_detail4NextISt10unique_ptrI19grpc_metadata_batchNS_5Arena13PooledDeleterEEEEJZNS_12PipeReceiverIS9_E4NextEvEUlSt8optionalIS9_EE_EED2Ev(ptr noundef nonnull align 8 dereferenceable(49) %state_) #3
  ret void
}

; Function Attrs: mustprogress nounwind uwtable
define internal void @"_ZN9grpc_core14promise_detail4RaceIJNS0_3SeqINS_11pipe_detail4NextISt10unique_ptrI19grpc_metadata_batchNS_5Arena13PooledDeleterEEEEJZNS_12PipeReceiverIS9_E4NextEvEUlSt8optionalIS9_EE_EEENS0_3MapIZNS_25ExternallyObservableLatchIvE4WaitEvEUlvE_ZZNS_22ClientPromiseBasedCall24StartRecvInitialMetadataEP19grpc_metadata_arrayRKNS_16PromiseBasedCall10CompletionERNS_5Party11BulkSpawnerEENK3$_0clEvEUlNS_5EmptyEE_EEEED2Ev"(ptr noundef nonnull align 8 dereferenceable(72) %this) unnamed_addr #5 align 2 {
entry:
  %this.addr = alloca ptr, align 8
  store ptr %this, ptr %this.addr, align 8
  %this1 = load ptr, ptr %this.addr, align 8
  %promise_ = getelementptr inbounds %"class.grpc_core::promise_detail::Race.575", ptr %this1, i32 0, i32 0
  call void @_ZN9grpc_core14promise_detail3SeqINS_11pipe_detail4NextISt10unique_ptrI19grpc_metadata_batchNS_5Arena13PooledDeleterEEEEJZNS_12PipeReceiverIS8_E4NextEvEUlSt8optionalIS8_EE_EED2Ev(ptr noundef nonnull align 8 dereferenceable(56) %promise_) #3
  ret void
}

; Function Attrs: mustprogress nounwind uwtable
define linkonce_odr void @_ZN9grpc_core16PromiseBasedCall10CompletionD2Ev(ptr noundef nonnull align 1 dereferenceable(1) %this) unnamed_addr #5 comdat align 2 personality ptr @__gxx_personality_v0 {
entry:
  %this.addr = alloca ptr, align 8
  store ptr %this, ptr %this.addr, align 8
  %this1 = load ptr, ptr %this.addr, align 8
  br label %do.body

do.body:                                          ; preds = %entry
  %index_ = getelementptr inbounds %"class.grpc_core::PromiseBasedCall::Completion", ptr %this1, i32 0, i32 0
  %0 = load i8, ptr %index_, align 1
  %conv = zext i8 %0 to i32
  %cmp = icmp eq i32 %conv, 255
  %lnot = xor i1 %cmp, true
  br i1 %lnot, label %if.then, label %if.end

if.then:                                          ; preds = %do.body
  invoke void @gpr_assertion_failed(ptr noundef @.str.7, i32 noundef 2090, ptr noundef @.str.116) #17
          to label %invoke.cont unwind label %terminate.lpad

invoke.cont:                                      ; preds = %if.then
  unreachable

if.end:                                           ; preds = %do.body
  br label %do.cond

do.cond:                                          ; preds = %if.end
  br label %do.end

do.end:                                           ; preds = %do.cond
  ret void

terminate.lpad:                                   ; preds = %if.then
  %1 = landingpad { ptr, i32 }
          catch ptr null
  %2 = extractvalue { ptr, i32 } %1, 0
  call void @__clang_call_terminate(ptr %2) #18
  unreachable
}

; Function Attrs: mustprogress nounwind uwtable
define internal void @"_ZN9grpc_core14promise_detail11PromiseLikeINS0_4RaceIJNS0_3SeqINS_11pipe_detail4NextISt10unique_ptrI19grpc_metadata_batchNS_5Arena13PooledDeleterEEEEJZNS_12PipeReceiverISA_E4NextEvEUlSt8optionalISA_EE_EEENS0_3MapIZNS_25ExternallyObservableLatchIvE4WaitEvEUlvE_ZZNS_22ClientPromiseBasedCall24StartRecvInitialMetadataEP19grpc_metadata_arrayRKNS_16PromiseBasedCall10CompletionERNS_5Party11BulkSpawnerEENK3$_0clEvEUlNS_5EmptyEE_EEEEEvED2Ev"(ptr noundef nonnull align 8 dereferenceable(72) %this) unnamed_addr #5 align 2 {
entry:
  %this.addr = alloca ptr, align 8
  store ptr %this, ptr %this.addr, align 8
  %this1 = load ptr, ptr %this.addr, align 8
  %f_ = getelementptr inbounds %"class.grpc_core::promise_detail::PromiseLike.574", ptr %this1, i32 0, i32 0
  call void @"_ZN9grpc_core14promise_detail4RaceIJNS0_3SeqINS_11pipe_detail4NextISt10unique_ptrI19grpc_metadata_batchNS_5Arena13PooledDeleterEEEEJZNS_12PipeReceiverIS9_E4NextEvEUlSt8optionalIS9_EE_EEENS0_3MapIZNS_25ExternallyObservableLatchIvE4WaitEvEUlvE_ZZNS_22ClientPromiseBasedCall24StartRecvInitialMetadataEP19grpc_metadata_arrayRKNS_16PromiseBasedCall10CompletionERNS_5Party11BulkSpawnerEENK3$_0clEvEUlNS_5EmptyEE_EEEED2Ev"(ptr noundef nonnull align 8 dereferenceable(72) %f_) #3
  ret void
}

; Function Attrs: mustprogress nounwind uwtable
define internal void @"_ZZN9grpc_core22ClientPromiseBasedCall24StartRecvInitialMetadataEP19grpc_metadata_arrayRKNS_16PromiseBasedCall10CompletionERNS_5Party11BulkSpawnerEEN3$_1D2Ev"(ptr noundef nonnull align 8 dereferenceable(17) %this) unnamed_addr #5 align 2 {
entry:
  %this.addr = alloca ptr, align 8
  store ptr %this, ptr %this.addr, align 8
  %this1 = load ptr, ptr %this.addr, align 8
  %0 = getelementptr inbounds %class.anon.314, ptr %this1, i32 0, i32 2
  call void @_ZN9grpc_core16PromiseBasedCall10CompletionD2Ev(ptr noundef nonnull align 1 dereferenceable(1) %0) #3
  ret void
}

; Function Attrs: mustprogress nounwind uwtable
define internal void @"_ZN9grpc_core8DestructINS_14promise_detail11PromiseLikeINS1_4RaceIJNS1_3SeqINS_11pipe_detail4NextISt10unique_ptrI19grpc_metadata_batchNS_5Arena13PooledDeleterEEEEJZNS_12PipeReceiverISB_E4NextEvEUlSt8optionalISB_EE_EEENS1_3MapIZNS_25ExternallyObservableLatchIvE4WaitEvEUlvE_ZZNS_22ClientPromiseBasedCall24StartRecvInitialMetadataEP19grpc_metadata_arrayRKNS_16PromiseBasedCall10CompletionERNS_5Party11BulkSpawnerEENK3$_0clEvEUlNS_5EmptyEE_EEEEEvEEEEvPT_"(ptr noundef %p) #5 {
entry:
  %p.addr = alloca ptr, align 8
  store ptr %p, ptr %p.addr, align 8
  %0 = load ptr, ptr %p.addr, align 8
  call void @"_ZN9grpc_core14promise_detail11PromiseLikeINS0_4RaceIJNS0_3SeqINS_11pipe_detail4NextISt10unique_ptrI19grpc_metadata_batchNS_5Arena13PooledDeleterEEEEJZNS_12PipeReceiverISA_E4NextEvEUlSt8optionalISA_EE_EEENS0_3MapIZNS_25ExternallyObservableLatchIvE4WaitEvEUlvE_ZZNS_22ClientPromiseBasedCall24StartRecvInitialMetadataEP19grpc_metadata_arrayRKNS_16PromiseBasedCall10CompletionERNS_5Party11BulkSpawnerEENK3$_0clEvEUlNS_5EmptyEE_EEEEEvED2Ev"(ptr noundef nonnull align 8 dereferenceable(72) %0) #3
  ret void
}

; Function Attrs: mustprogress nounwind uwtable
define internal void @"_ZN9grpc_core8DestructINS_14promise_detail18OncePromiseFactoryIvZNS_22ClientPromiseBasedCall24StartRecvInitialMetadataEP19grpc_metadata_arrayRKNS_16PromiseBasedCall10CompletionERNS_5Party11BulkSpawnerEE3$_0EEEEvPT_"(ptr noundef %p) #5 {
entry:
  %p.addr = alloca ptr, align 8
  store ptr %p, ptr %p.addr, align 8
  ret void
}

; Function Attrs: mustprogress nounwind uwtable
define internal void @"_ZN9grpc_core5Party15ParticipantImplIZNS_22ClientPromiseBasedCall24StartRecvInitialMetadataEP19grpc_metadata_arrayRKNS_16PromiseBasedCall10CompletionERNS0_11BulkSpawnerEE3$_0ZNS2_24StartRecvInitialMetadataES4_S8_SA_E3$_1ED2Ev"(ptr noundef nonnull align 8 dereferenceable(128) %this) unnamed_addr #5 align 2 personality ptr @__gxx_personality_v0 {
entry:
  %this.addr = alloca ptr, align 8
  store ptr %this, ptr %this.addr, align 8
  %this1 = load ptr, ptr %this.addr, align 8
  %started_ = getelementptr inbounds %"class.grpc_core::Party::ParticipantImpl.571", ptr %this1, i32 0, i32 3
  %0 = load i8, ptr %started_, align 1
  %tobool = trunc i8 %0 to i1
  br i1 %tobool, label %if.else, label %if.then

if.then:                                          ; preds = %entry
  %1 = getelementptr inbounds %"class.grpc_core::Party::ParticipantImpl.571", ptr %this1, i32 0, i32 1
  call void @"_ZN9grpc_core8DestructINS_14promise_detail18OncePromiseFactoryIvZNS_22ClientPromiseBasedCall24StartRecvInitialMetadataEP19grpc_metadata_arrayRKNS_16PromiseBasedCall10CompletionERNS_5Party11BulkSpawnerEE3$_0EEEEvPT_"(ptr noundef %1)
  br label %if.end

if.else:                                          ; preds = %entry
  %2 = getelementptr inbounds %"class.grpc_core::Party::ParticipantImpl.571", ptr %this1, i32 0, i32 1
  invoke void @"_ZN9grpc_core8DestructINS_14promise_detail11PromiseLikeINS1_4RaceIJNS1_3SeqINS_11pipe_detail4NextISt10unique_ptrI19grpc_metadata_batchNS_5Arena13PooledDeleterEEEEJZNS_12PipeReceiverISB_E4NextEvEUlSt8optionalISB_EE_EEENS1_3MapIZNS_25ExternallyObservableLatchIvE4WaitEvEUlvE_ZZNS_22ClientPromiseBasedCall24StartRecvInitialMetadataEP19grpc_metadata_arrayRKNS_16PromiseBasedCall10CompletionERNS_5Party11BulkSpawnerEENK3$_0clEvEUlNS_5EmptyEE_EEEEEvEEEEvPT_"(ptr noundef %2)
          to label %invoke.cont unwind label %terminate.lpad

invoke.cont:                                      ; preds = %if.else
  br label %if.end

if.end:                                           ; preds = %invoke.cont, %if.then
  %on_complete_ = getelementptr inbounds %"class.grpc_core::Party::ParticipantImpl.571", ptr %this1, i32 0, i32 2
  call void @"_ZZN9grpc_core22ClientPromiseBasedCall24StartRecvInitialMetadataEP19grpc_metadata_arrayRKNS_16PromiseBasedCall10CompletionERNS_5Party11BulkSpawnerEEN3$_1D2Ev"(ptr noundef nonnull align 8 dereferenceable(17) %on_complete_) #3
  call void @_ZN9grpc_core5Party11ParticipantD2Ev(ptr noundef nonnull align 8 dereferenceable(32) %this1) #3
  ret void

terminate.lpad:                                   ; preds = %if.else
  %3 = landingpad { ptr, i32 }
          catch ptr null
  %4 = extractvalue { ptr, i32 } %3, 0
  call void @__clang_call_terminate(ptr %4) #18
  unreachable
}

; Function Attrs: mustprogress nounwind uwtable
define linkonce_odr noundef ptr @_ZN9grpc_core14promise_detail7ContextINS_5ArenaEE3getEv() #5 comdat align 2 {
entry:
  %0 = call align 8 ptr @llvm.threadlocal.address.p0(ptr align 8 @_ZN9grpc_core14promise_detail7ContextINS_5ArenaEE8current_E)
  %1 = load ptr, ptr %0, align 8
  ret ptr %1
}

; Function Attrs: mustprogress nounwind uwtable
define internal void @"_ZN9grpc_core5Arena12DeletePooledINS_5Party15ParticipantImplIZNS_22ClientPromiseBasedCall24StartRecvInitialMetadataEP19grpc_metadata_arrayRKNS_16PromiseBasedCall10CompletionERNS2_11BulkSpawnerEE3$_0ZNS4_24StartRecvInitialMetadataES6_SA_SC_E3$_1EEEEvPT_"(ptr noundef nonnull align 8 dereferenceable(48) %this, ptr noundef %p) #5 align 2 {
entry:
  %this.addr = alloca ptr, align 8
  %p.addr = alloca ptr, align 8
  store ptr %this, ptr %this.addr, align 8
  store ptr %p, ptr %p.addr, align 8
  %0 = load ptr, ptr %p.addr, align 8
  %isnull = icmp eq ptr %0, null
  br i1 %isnull, label %delete.end, label %delete.notnull

delete.notnull:                                   ; preds = %entry
  call void @"_ZN9grpc_core5Party15ParticipantImplIZNS_22ClientPromiseBasedCall24StartRecvInitialMetadataEP19grpc_metadata_arrayRKNS_16PromiseBasedCall10CompletionERNS0_11BulkSpawnerEE3$_0ZNS2_24StartRecvInitialMetadataES4_S8_SA_E3$_1ED2Ev"(ptr noundef nonnull align 8 dereferenceable(128) %0) #3
  call void @_ZdlPv(ptr noundef %0) #20
  br label %delete.end

delete.end:                                       ; preds = %delete.notnull, %entry
  ret void
}

; Function Attrs: mustprogress uwtable
define linkonce_odr noundef ptr @_ZN9grpc_core10GetContextINS_5ArenaEEEPT_v() #4 comdat {
entry:
  %p = alloca ptr, align 8
  %call = call noundef ptr @_ZN9grpc_core14promise_detail7ContextINS_5ArenaEE3getEv()
  store ptr %call, ptr %p, align 8
  br label %do.body

do.body:                                          ; preds = %entry
  %0 = load ptr, ptr %p, align 8
  %cmp = icmp ne ptr %0, null
  %lnot = xor i1 %cmp, true
  br i1 %lnot, label %if.then, label %if.end

if.then:                                          ; preds = %do.body
  call void @gpr_assertion_failed(ptr noundef @.str.131, i32 noundef 80, ptr noundef @.str.132) #17
  unreachable

if.end:                                           ; preds = %do.body
  br label %do.end

do.end:                                           ; preds = %if.end
  %1 = load ptr, ptr %p, align 8
  ret ptr %1
}

; Function Attrs: mustprogress uwtable
define internal void @"_ZN9grpc_core5Party15ParticipantImplIZNS_22ClientPromiseBasedCall24StartRecvInitialMetadataEP19grpc_metadata_arrayRKNS_16PromiseBasedCall10CompletionERNS0_11BulkSpawnerEE3$_0ZNS2_24StartRecvInitialMetadataES4_S8_SA_E3$_1E7DestroyEv"(ptr noundef nonnull align 8 dereferenceable(128) %this) unnamed_addr #4 align 2 {
entry:
  %this.addr = alloca ptr, align 8
  store ptr %this, ptr %this.addr, align 8
  %this1 = load ptr, ptr %this.addr, align 8
  %call = call noundef ptr @_ZN9grpc_core10GetContextINS_5ArenaEEEPT_v()
  call void @"_ZN9grpc_core5Arena12DeletePooledINS_5Party15ParticipantImplIZNS_22ClientPromiseBasedCall24StartRecvInitialMetadataEP19grpc_metadata_arrayRKNS_16PromiseBasedCall10CompletionERNS2_11BulkSpawnerEE3$_0ZNS4_24StartRecvInitialMetadataES6_SA_SC_E3$_1EEEEvPT_"(ptr noundef nonnull align 8 dereferenceable(48) %call, ptr noundef %this1)
  ret void
}